; Function Attrs: nounwind uwtable
define i32 @av_buffersink_get_frame_flags(ptr noundef readonly captures(none) %0, ptr noundef %1, i32 noundef %2) local_unnamed_addr #0 {
  %4 = getelementptr inbounds nuw i8, ptr %0, i64 32
  %5 = load ptr, ptr %4, align 8, !tbaa !4
  %6 = load ptr, ptr %5, align 8, !tbaa !20
  %7 = getelementptr inbounds nuw i8, ptr %6, i64 224
  %8 = load i32, ptr %7, align 8, !tbaa !22
  %9 = tail call fastcc i32 @get_frame_internal(ptr noundef %0, ptr noundef %1, i32 noundef %2, i32 noundef %8)
  ret i32 %9
}